; Function Attrs: nounwind uwtable
define internal void @set_topo_level(ptr noundef readonly captures(none) %0, i64 noundef %1, ptr noundef readonly captures(none) %2) #0 {
  %4 = getelementptr inbounds nuw i8, ptr %2, i64 184
  %5 = load ptr, ptr %4, align 8, !tbaa !188
  %6 = getelementptr i8, ptr %0, i64 64
  %.val = load i32, ptr %6, align 8, !tbaa !49
  %7 = load i32, ptr %5, align 8, !tbaa !143
  %8 = udiv i32 %.val, %7
  %9 = urem i32 %.val, %7
  %10 = getelementptr inbounds nuw i8, ptr %5, i64 8
  %11 = load i32, ptr %10, align 8, !tbaa !146
  %.not.i.i = icmp ugt i32 %11, %8
  br i1 %.not.i.i, label %._crit_edge4.i.i, label %st_mult.exit.i.i

._crit_edge4.i.i:                                 ; preds = %3
  %.phi.trans.insert.i.i = getelementptr inbounds nuw i8, ptr %5, i64 16
  %.pre.i.i = load ptr, ptr %.phi.trans.insert.i.i, align 8, !tbaa !147
  br label %22

st_mult.exit.i.i:                                 ; preds = %3
  %12 = add i32 %8, 1
  %13 = zext i32 %12 to i64
  %14 = getelementptr inbounds nuw i8, ptr %5, i64 16
  %15 = load ptr, ptr %14, align 8, !tbaa !147
  %16 = shl nuw nsw i64 %13, 3
  %17 = tail call ptr @xrealloc(ptr noundef %15, i64 noundef %16) #24
  store ptr %17, ptr %14, align 8, !tbaa !147
  %18 = load i32, ptr %10, align 8, !tbaa !146
  %.not332.i.i = icmp ugt i32 %18, %8
  br i1 %.not332.i.i, label %._crit_edge.i.i, label %.lr.ph.i.i

.lr.ph.i.i:                                       ; preds = %st_mult.exit.i.i, %.lr.ph.i.i
  %.0303.i.i = phi i32 [ %21, %.lr.ph.i.i ], [ %18, %st_mult.exit.i.i ]
  %19 = zext i32 %.0303.i.i to i64
  %20 = getelementptr inbounds nuw ptr, ptr %17, i64 %19
  store ptr null, ptr %20, align 8, !tbaa !148
  %21 = add i32 %.0303.i.i, 1
  %.not33.i.i = icmp ugt i32 %21, %8
  br i1 %.not33.i.i, label %._crit_edge.i.i, label %.lr.ph.i.i, !llvm.loop !149

._crit_edge.i.i:                                  ; preds = %.lr.ph.i.i, %st_mult.exit.i.i
  store i32 %12, ptr %10, align 8, !tbaa !146
  br label %22

22:                                               ; preds = %._crit_edge.i.i, %._crit_edge4.i.i
  %23 = phi ptr [ %.pre.i.i, %._crit_edge4.i.i ], [ %17, %._crit_edge.i.i ]
  %24 = zext i32 %8 to i64
  %25 = getelementptr inbounds nuw ptr, ptr %23, i64 %24
  %26 = load ptr, ptr %25, align 8, !tbaa !148
  %.not34.i.i = icmp eq ptr %26, null
  br i1 %.not34.i.i, label %27, label %topo_level_slab_at.exit

27:                                               ; preds = %22
  %28 = getelementptr inbounds nuw i8, ptr %5, i64 16
  %29 = load i32, ptr %5, align 8, !tbaa !143
  %30 = zext i32 %29 to i64
  %31 = getelementptr inbounds nuw i8, ptr %5, i64 4
  %32 = load i32, ptr %31, align 4, !tbaa !150
  %33 = zext i32 %32 to i64
  %34 = shl nuw nsw i64 %33, 2
  %35 = tail call ptr @xcalloc(i64 noundef %30, i64 noundef %34) #24
  %36 = load ptr, ptr %28, align 8, !tbaa !147
  %37 = getelementptr inbounds nuw ptr, ptr %36, i64 %24
  store ptr %35, ptr %37, align 8, !tbaa !148
  br label %topo_level_slab_at.exit

topo_level_slab_at.exit:                          ; preds = %22, %27
  %38 = phi ptr [ %26, %22 ], [ %35, %27 ]
  %39 = trunc i64 %1 to i32
  %40 = getelementptr inbounds nuw i8, ptr %5, i64 4
  %41 = load i32, ptr %40, align 4, !tbaa !150
  %42 = mul i32 %41, %9
  %43 = zext i32 %42 to i64
  %44 = getelementptr inbounds nuw i32, ptr %38, i64 %43
  store i32 %39, ptr %44, align 4, !tbaa !47
  ret void
}